Certificate:
    Data:
        Version: 3 (0x2)
        Serial Number: 1 (0x1)
    Signature Algorithm: sha256WithRSAEncryption
        Issuer: C=US, ST=CA, L=SanFrancisco, O=Fort-Funston, OU=MyOrganizationalUnit, CN=Fort-Funston CA/name=EasyRSA/emailAddress=me@myhost.mydomain
        Validity
            Not Before: Dec 12 14:44:19 2016 GMT
            Not After : Dec 10 14:44:19 2026 GMT
        Subject: C=US, ST=CA, L=SanFrancisco, O=Fort-Funston, OU=MyOrganizationalUnit, CN=delta/name=deltaVPN/emailAddress=me@myhost.mydomain
        Subject Public Key Info:
            Public Key Algorithm: rsaEncryption
                Public-Key: (2048 bit)
                Modulus:
                    00:d9:8f:ea:ae:bd:12:44:3f:68:8c:4e:dc:bd:87:
                    09:6e:8e:29:20:85:55:3b:1e:a9:15:ec:a7:33:75:
                    62:d1:89:cf:57:5f:55:36:4b:6c:18:78:f1:9b:d7:
                    e5:5e:91:6a:34:5a:11:e8:99:84:9b:f5:da:56:2f:
                    72:52:73:7f:86:69:91:71:be:53:1b:fb:97:c4:33:
                    33:80:fa:7a:5e:80:27:53:06:ee:5f:7b:f5:d6:8e:
                    fb:a6:b1:58:03:c5:74:f1:e6:c4:67:0f:9e:cc:ea:
                    fa:06:6f:bb:0c:9a:1f:a4:95:23:8c:2b:20:d2:7d:
                    13:83:e9:3b:65:04:ec:b3:0a:4a:f2:53:0b:c4:8c:
                    d3:e7:79:c3:71:68:22:b8:8b:db:3a:a8:1c:28:b3:
                    2a:8b:22:40:77:86:5b:4d:53:59:2d:40:ed:40:47:
                    7a:2e:aa:4b:9f:23:d7:59:03:ac:20:0c:98:d9:1c:
                    d6:d4:d2:bc:88:b8:03:55:a4:8e:89:6a:01:cc:b2:
                    fa:fc:84:63:f8:c3:72:e7:48:40:8b:c6:e2:45:ab:
                    fb:ea:0a:ba:1f:1a:90:48:67:6e:0e:12:3e:fd:2c:
                    ca:99:f1:8b:4f:51:61:2a:49:d5:e5:16:f1:47:1f:
                    34:4d:31:22:c4:79:7b:d9:fb:f6:15:b6:82:1c:46:
                    a7:0f
                Exponent: 65537 (0x10001)
        X509v3 extensions:
            X509v3 Basic Constraints: 
                CA:FALSE
            Netscape Cert Type: 
                SSL Server
            Netscape Comment: 
                Easy-RSA Generated Server Certificate
            X509v3 Subject Key Identifier: 
                37:3B:1C:DD:82:9C:19:35:34:CA:48:B9:D1:B2:74:5C:B1:6C:C9:07
            X509v3 Authority Key Identifier: 
                keyid:9E:D6:0D:A3:4C:85:01:B4:87:DE:8B:42:54:FD:7F:B7:66:07:5E:F9
                DirName:/C=US/ST=CA/L=SanFrancisco/O=Fort-Funston/OU=MyOrganizationalUnit/CN=Fort-Funston CA/name=EasyRSA/emailAddress=me@myhost.mydomain
                serial:D2:46:71:0B:A3:45:2C:88

            X509v3 Extended Key Usage: 
                TLS Web Server Authentication
            X509v3 Key Usage: 
                Digital Signature, Key Encipherment
            X509v3 Subject Alternative Name: 
                DNS:delta
    Signature Algorithm: sha256WithRSAEncryption
         12:6d:55:dd:ec:2e:46:a8:54:71:81:03:f3:bc:77:1f:35:db:
         a5:6d:cf:09:80:74:0f:8e:3f:d7:fc:6f:bb:c2:74:0f:66:91:
         56:83:a4:9f:42:99:60:79:d5:a8:30:f8:b0:db:d3:65:bd:30:
         ff:d6:b7:20:5d:68:1f:ce:d3:cd:87:47:e0:a7:bc:9b:6a:d3:
         8e:d7:4d:bb:85:47:b3:98:20:78:c3:83:b1:c7:b1:8b:91:c1:
         a2:fa:1e:b3:36:f9:11:9b:66:9f:03:3b:93:f7:11:c4:25:27:
         40:a9:af:dc:8e:05:70:f6:f8:08:51:14:b8:f3:43:af:88:a5:
         0f:a2:2e:92:b3:0d:72:06:93:09:0d:09:a1:00:9c:43:33:bb:
         64:39:10:18:a9:12:7c:49:77:ab:84:f6:a1:07:6c:54:9a:ee:
         1a:81:0b:f4:12:6f:ea:73:a0:64:e1:73:f2:4a:ca:a8:02:d2:
         5d:5f:65:c8:11:92:37:52:9e:6d:19:7e:9e:bb:b2:97:c6:76:
         44:6f:50:05:9b:35:1c:a3:53:1a:7f:18:95:48:eb:97:92:90:
         47:37:dd:5e:0d:fc:7f:f3:ab:bc:0a:15:e0:43:fa:81:9e:56:
         d6:c6:5c:f5:3e:3a:00:ed:cb:ca:50:38:ea:0e:db:98:d7:a1:
         a0:a7:5b:57
-----BEGIN CERTIFICATE-----
MIIFezCCBGOgAwIBAgIBATANBgkqhkiG9w0BAQsFADCBtjELMAkGA1UEBhMCVVMx
CzAJBgNVBAgTAkNBMRUwEwYDVQQHEwxTYW5GcmFuY2lzY28xFTATBgNVBAoTDEZv
cnQtRnVuc3RvbjEdMBsGA1UECxMUTXlPcmdhbml6YXRpb25hbFVuaXQxGDAWBgNV
BAMTD0ZvcnQtRnVuc3RvbiBDQTEQMA4GA1UEKRMHRWFzeVJTQTEhMB8GCSqGSIb3
DQEJARYSbWVAbXlob3N0Lm15ZG9tYWluMB4XDTE2MTIxMjE0NDQxOVoXDTI2MTIx
MDE0NDQxOVowga0xCzAJBgNVBAYTAlVTMQswCQYDVQQIEwJDQTEVMBMGA1UEBxMM
U2FuRnJhbmNpc2NvMRUwEwYDVQQKEwxGb3J0LUZ1bnN0b24xHTAbBgNVBAsTFE15
T3JnYW5pemF0aW9uYWxVbml0MQ4wDAYDVQQDEwVkZWx0YTERMA8GA1UEKRMIZGVs
dGFWUE4xITAfBgkqhkiG9w0BCQEWEm1lQG15aG9zdC5teWRvbWFpbjCCASIwDQYJ
KoZIhvcNAQEBBQADggEPADCCAQoCggEBANmP6q69EkQ/aIxO3L2HCW6OKSCFVTse
qRXspzN1YtGJz1dfVTZLbBh48ZvX5V6RajRaEeiZhJv12lYvclJzf4ZpkXG+Uxv7
l8QzM4D6el6AJ1MG7l979daO+6axWAPFdPHmxGcPnszq+gZvuwyaH6SVI4wrINJ9
E4PpO2UE7LMKSvJTC8SM0+d5w3FoIriL2zqoHCizKosiQHeGW01TWS1A7UBHei6q
S58j11kDrCAMmNkc1tTSvIi4A1WkjolqAcyy+vyEY/jDcudIQIvG4kWr++oKuh8a
kEhnbg4SPv0sypnxi09RYSpJ1eUW8UcfNE0xIsR5e9n79hW2ghxGpw8CAwEAAaOC
AZkwggGVMAkGA1UdEwQCMAAwEQYJYIZIAYb4QgEBBAQDAgZAMDQGCWCGSAGG+EIB
DQQnFiVFYXN5LVJTQSBHZW5lcmF0ZWQgU2VydmVyIENlcnRpZmljYXRlMB0GA1Ud
DgQWBBQ3OxzdgpwZNTTKSLnRsnRcsWzJBzCB6wYDVR0jBIHjMIHggBSe1g2jTIUB
tIfei0JU/X+3Zgde+aGBvKSBuTCBtjELMAkGA1UEBhMCVVMxCzAJBgNVBAgTAkNB
MRUwEwYDVQQHEwxTYW5GcmFuY2lzY28xFTATBgNVBAoTDEZvcnQtRnVuc3RvbjEd
MBsGA1UECxMUTXlPcmdhbml6YXRpb25hbFVuaXQxGDAWBgNVBAMTD0ZvcnQtRnVu
c3RvbiBDQTEQMA4GA1UEKRMHRWFzeVJTQTEhMB8GCSqGSIb3DQEJARYSbWVAbXlo
b3N0Lm15ZG9tYWluggkA0kZxC6NFLIgwEwYDVR0lBAwwCgYIKwYBBQUHAwEwCwYD
VR0PBAQDAgWgMBAGA1UdEQQJMAeCBWRlbHRhMA0GCSqGSIb3DQEBCwUAA4IBAQAS
bVXd7C5GqFRxgQPzvHcfNdulbc8JgHQPjj/X/G+7wnQPZpFWg6SfQplgedWoMPiw
29NlvTD/1rcgXWgfztPNh0fgp7ybatOO1027hUezmCB4w4Oxx7GLkcGi+h6zNvkR
m2afAzuT9xHEJSdAqa/cjgVw9vgIURS480OviKUPoi6Ssw1yBpMJDQmhAJxDM7tk
ORAYqRJ8SXerhPahB2xUmu4agQv0Em/qc6Bk4XPySsqoAtJdX2XIEZI3Up5tGX6e
u7KXxnZEb1AFmzUco1MafxiVSOuXkpBHN91eDfx/86u8ChXgQ/qBnlbWxlz1PjoA
7cvKUDjqDtuY16Ggp1tX
-----END CERTIFICATE-----
