Certificate:
    Data:
        Version: 3 (0x2)
        Serial Number: 2 (0x2)
    Signature Algorithm: sha256WithRSAEncryption
        Issuer: C=US, ST=CA, L=SanFrancisco, O=Fort-Funston, OU=MyOrganizationalUnit, CN=Fort-Funston CA/name=EasyRSA/emailAddress=me@myhost.mydomain
        Validity
            Not Before: Dec 12 14:48:57 2016 GMT
            Not After : Dec 10 14:48:57 2026 GMT
        Subject: C=US, ST=CA, L=SanFrancisco, O=Fort-Funston, OU=MyOrganizationalUnit, CN=laptop/name=EasyRSA/emailAddress=me@myhost.mydomain
        Subject Public Key Info:
            Public Key Algorithm: rsaEncryption
                Public-Key: (2048 bit)
                Modulus:
                    00:c7:bc:98:df:d3:bb:77:cd:46:ab:4c:0d:3f:b5:
                    84:2d:17:df:e0:cf:cb:e8:32:1a:59:bd:0d:e9:78:
                    8b:03:70:23:2f:9f:5d:16:2d:f8:c6:22:a7:5f:7f:
                    45:13:a8:36:85:a4:e9:48:ed:b5:9f:a4:7e:bd:9f:
                    f2:cf:65:fe:7e:92:b5:fa:2b:8d:37:af:6f:f7:bc:
                    04:6d:93:68:e9:cf:1e:ec:31:77:ac:e2:73:e7:a5:
                    9a:33:88:0a:a0:f5:f8:20:e1:81:79:64:d3:05:36:
                    76:b1:05:95:13:7c:7f:f3:04:f8:db:6d:c2:f0:dd:
                    c1:e0:74:24:43:c4:2c:f7:af:86:1f:87:ec:0e:21:
                    e2:25:11:8f:a1:56:cc:37:00:71:fd:1a:0a:44:a8:
                    6d:1b:67:0e:93:6a:74:61:95:46:ac:55:04:4d:9e:
                    76:4f:83:58:e2:3e:14:40:7f:57:db:ec:a9:b4:6d:
                    a8:84:ca:c4:f9:b0:42:69:7b:8e:b6:87:8b:ab:55:
                    56:59:fc:5c:7e:b3:82:0d:f0:6b:60:40:cb:ca:50:
                    ac:eb:ef:cb:70:1f:ba:e9:c2:29:a1:73:a5:da:25:
                    7a:4e:f6:b0:bf:88:3c:c8:48:48:09:01:28:ba:84:
                    09:a8:92:04:9c:40:0e:09:bd:62:a3:ad:e2:83:45:
                    0b:15
                Exponent: 65537 (0x10001)
        X509v3 extensions:
            X509v3 Basic Constraints: 
                CA:FALSE
            Netscape Comment: 
                Easy-RSA Generated Certificate
            X509v3 Subject Key Identifier: 
                EB:67:1A:51:47:EE:BF:EC:08:E0:ED:01:C9:2B:F9:9C:05:E4:31:3E
            X509v3 Authority Key Identifier: 
                keyid:9E:D6:0D:A3:4C:85:01:B4:87:DE:8B:42:54:FD:7F:B7:66:07:5E:F9
                DirName:/C=US/ST=CA/L=SanFrancisco/O=Fort-Funston/OU=MyOrganizationalUnit/CN=Fort-Funston CA/name=EasyRSA/emailAddress=me@myhost.mydomain
                serial:D2:46:71:0B:A3:45:2C:88

            X509v3 Extended Key Usage: 
                TLS Web Client Authentication
            X509v3 Key Usage: 
                Digital Signature
            X509v3 Subject Alternative Name: 
                DNS:laptop
    Signature Algorithm: sha256WithRSAEncryption
         a1:f5:25:14:60:8f:7d:33:8f:d4:52:c9:ae:90:48:89:4d:35:
         94:28:f2:e3:c7:35:a6:c1:0a:d8:d4:0a:c5:a6:e9:94:d4:75:
         90:94:d3:ce:0b:da:36:f6:7a:fa:90:fb:9e:ff:bd:6e:f8:d5:
         88:d3:da:f3:0c:ab:0e:55:9b:69:53:d0:79:61:d4:94:21:90:
         d0:ab:31:6b:34:63:ce:5f:6c:71:22:12:64:83:fe:d7:2a:65:
         d7:a7:cc:75:be:c0:f8:68:6c:53:96:62:fe:f1:22:b1:8b:5a:
         e9:51:a4:6f:03:51:55:cd:14:18:a0:76:18:06:4e:20:9e:10:
         9c:e0:9d:cd:7a:26:37:95:bd:9d:32:4c:b6:69:96:54:da:ae:
         9c:0a:4f:93:9c:ae:26:6a:34:87:a4:a0:ab:a2:11:90:3a:cb:
         d5:94:50:f8:dc:4a:69:65:11:f0:be:31:fa:98:40:7d:15:ae:
         f3:1a:65:48:9e:d9:15:6f:bd:41:4a:a2:8e:d4:fd:85:1b:81:
         e3:aa:20:35:b1:62:4d:12:51:b4:72:31:60:5d:40:7f:63:9d:
         76:ca:13:90:bf:71:d6:29:f8:57:a6:dc:50:57:2f:94:4c:65:
         7a:cb:a0:8a:5c:7e:1c:99:2f:96:a8:7b:f8:4e:2c:98:fc:a8:
         3d:44:3c:4c
-----BEGIN CERTIFICATE-----
MIIFYjCCBEqgAwIBAgIBAjANBgkqhkiG9w0BAQsFADCBtjELMAkGA1UEBhMCVVMx
CzAJBgNVBAgTAkNBMRUwEwYDVQQHEwxTYW5GcmFuY2lzY28xFTATBgNVBAoTDEZv
cnQtRnVuc3RvbjEdMBsGA1UECxMUTXlPcmdhbml6YXRpb25hbFVuaXQxGDAWBgNV
BAMTD0ZvcnQtRnVuc3RvbiBDQTEQMA4GA1UEKRMHRWFzeVJTQTEhMB8GCSqGSIb3
DQEJARYSbWVAbXlob3N0Lm15ZG9tYWluMB4XDTE2MTIxMjE0NDg1N1oXDTI2MTIx
MDE0NDg1N1owga0xCzAJBgNVBAYTAlVTMQswCQYDVQQIEwJDQTEVMBMGA1UEBxMM
U2FuRnJhbmNpc2NvMRUwEwYDVQQKEwxGb3J0LUZ1bnN0b24xHTAbBgNVBAsTFE15
T3JnYW5pemF0aW9uYWxVbml0MQ8wDQYDVQQDEwZsYXB0b3AxEDAOBgNVBCkTB0Vh
c3lSU0ExITAfBgkqhkiG9w0BCQEWEm1lQG15aG9zdC5teWRvbWFpbjCCASIwDQYJ
KoZIhvcNAQEBBQADggEPADCCAQoCggEBAMe8mN/Tu3fNRqtMDT+1hC0X3+DPy+gy
Glm9Del4iwNwIy+fXRYt+MYip19/RROoNoWk6UjttZ+kfr2f8s9l/n6StforjTev
b/e8BG2TaOnPHuwxd6zic+elmjOICqD1+CDhgXlk0wU2drEFlRN8f/ME+NttwvDd
weB0JEPELPevhh+H7A4h4iURj6FWzDcAcf0aCkSobRtnDpNqdGGVRqxVBE2edk+D
WOI+FEB/V9vsqbRtqITKxPmwQml7jraHi6tVVln8XH6zgg3wa2BAy8pQrOvvy3Af
uunCKaFzpdolek72sL+IPMhISAkBKLqECaiSBJxADgm9YqOt4oNFCxUCAwEAAaOC
AYAwggF8MAkGA1UdEwQCMAAwLQYJYIZIAYb4QgENBCAWHkVhc3ktUlNBIEdlbmVy
YXRlZCBDZXJ0aWZpY2F0ZTAdBgNVHQ4EFgQU62caUUfuv+wI4O0BySv5nAXkMT4w
gesGA1UdIwSB4zCB4IAUntYNo0yFAbSH3otCVP1/t2YHXvmhgbykgbkwgbYxCzAJ
BgNVBAYTAlVTMQswCQYDVQQIEwJDQTEVMBMGA1UEBxMMU2FuRnJhbmNpc2NvMRUw
EwYDVQQKEwxGb3J0LUZ1bnN0b24xHTAbBgNVBAsTFE15T3JnYW5pemF0aW9uYWxV
bml0MRgwFgYDVQQDEw9Gb3J0LUZ1bnN0b24gQ0ExEDAOBgNVBCkTB0Vhc3lSU0Ex
ITAfBgkqhkiG9w0BCQEWEm1lQG15aG9zdC5teWRvbWFpboIJANJGcQujRSyIMBMG
A1UdJQQMMAoGCCsGAQUFBwMCMAsGA1UdDwQEAwIHgDARBgNVHREECjAIggZsYXB0
b3AwDQYJKoZIhvcNAQELBQADggEBAKH1JRRgj30zj9RSya6QSIlNNZQo8uPHNabB
CtjUCsWm6ZTUdZCU084L2jb2evqQ+57/vW741YjT2vMMqw5Vm2lT0Hlh1JQhkNCr
MWs0Y85fbHEiEmSD/tcqZdenzHW+wPhobFOWYv7xIrGLWulRpG8DUVXNFBigdhgG
TiCeEJzgnc16JjeVvZ0yTLZpllTarpwKT5OcriZqNIekoKuiEZA6y9WUUPjcSmll
EfC+MfqYQH0VrvMaZUie2RVvvUFKoo7U/YUbgeOqIDWxYk0SUbRyMWBdQH9jnXbK
E5C/cdYp+Fem3FBXL5RMZXrLoIpcfhyZL5aoe/hOLJj8qD1EPEw=
-----END CERTIFICATE-----
